target datalayout = "e-m:e-p270:32:32-p271:32:32-p272:64:64-i64:64-i128:128-f80:128-n8:16:32:64-S128"
target triple = "x86_64-pc-linux-gnu"

@.str.130 = private unnamed_addr constant [2 x i8] c":\00", align 1

; Function Attrs: nounwind uwtable
define internal i32 @chkflevel(ptr noundef %0, i32 noundef %1) #0 {
  %3 = alloca i32, align 4
  %4 = alloca ptr, align 8
  %5 = alloca i32, align 4
  %6 = alloca ptr, align 8
  store ptr %0, ptr %4, align 8
  store i32 %1, ptr %5, align 4
  %7 = load ptr, ptr %4, align 8
  %8 = load i32, ptr %5, align 4
  %9 = call ptr @cli_strtok(ptr noundef %7, i32 noundef %8, ptr noundef @.str.130)
  store ptr %9, ptr %6, align 8
  %10 = icmp ne ptr %9, null
  br i1 %10, label %11, label %61

11:                                               ; preds = %2
  %12 = call ptr @__ctype_b_loc() #7
  %13 = load ptr, ptr %12, align 8
  %14 = load ptr, ptr %6, align 8
  %15 = load i8, ptr %14, align 1
  %16 = sext i8 %15 to i32
  %17 = sext i32 %16 to i64
  %18 = getelementptr inbounds i16, ptr %13, i64 %17
  %19 = load i16, ptr %18, align 2
  %20 = zext i16 %19 to i32
  %21 = and i32 %20, 2048
  %22 = icmp ne i32 %21, 0
  br i1 %22, label %25, label %23

23:                                               ; preds = %11
  %24 = load ptr, ptr %6, align 8
  call void @free(ptr noundef %24) #6
  store i32 0, ptr %3, align 4
  br label %62

25:                                               ; preds = %11
  %26 = load ptr, ptr %6, align 8
  %27 = call i32 @atoi(ptr noundef %26) #5
  %28 = icmp ugt i32 %27, 210
  br i1 %28, label %29, label %31

29:                                               ; preds = %25
  %30 = load ptr, ptr %6, align 8
  call void @free(ptr noundef %30) #6
  store i32 0, ptr %3, align 4
  br label %62

31:                                               ; preds = %25
  %32 = load ptr, ptr %6, align 8
  call void @free(ptr noundef %32) #6
  %33 = load ptr, ptr %4, align 8
  %34 = load i32, ptr %5, align 4
  %35 = add nsw i32 %34, 1
  %36 = call ptr @cli_strtok(ptr noundef %33, i32 noundef %35, ptr noundef @.str.130)
  store ptr %36, ptr %6, align 8
  %37 = icmp ne ptr %36, null
  br i1 %37, label %38, label %60

38:                                               ; preds = %31
  %39 = call ptr @__ctype_b_loc() #7
  %40 = load ptr, ptr %39, align 8
  %41 = load ptr, ptr %6, align 8
  %42 = load i8, ptr %41, align 1
  %43 = sext i8 %42 to i32
  %44 = sext i32 %43 to i64
  %45 = getelementptr inbounds i16, ptr %40, i64 %44
  %46 = load i16, ptr %45, align 2
  %47 = zext i16 %46 to i32
  %48 = and i32 %47, 2048
  %49 = icmp ne i32 %48, 0
  br i1 %49, label %52, label %50

50:                                               ; preds = %38
  %51 = load ptr, ptr %6, align 8
  call void @free(ptr noundef %51) #6
  store i32 0, ptr %3, align 4
  br label %62

52:                                               ; preds = %38
  %53 = load ptr, ptr %6, align 8
  %54 = call i32 @atoi(ptr noundef %53) #5
  %55 = icmp ult i32 %54, 210
  br i1 %55, label %56, label %58

56:                                               ; preds = %52
  %57 = load ptr, ptr %6, align 8
  call void @free(ptr noundef %57) #6
  store i32 0, ptr %3, align 4
  br label %62

58:                                               ; preds = %52
  %59 = load ptr, ptr %6, align 8
  call void @free(ptr noundef %59) #6
  br label %60

60:                                               ; preds = %58, %31
  br label %61

61:                                               ; preds = %60, %2
  store i32 1, ptr %3, align 4
  br label %62

62:                                               ; preds = %61, %56, %50, %29, %23
  %63 = load i32, ptr %3, align 4
  ret i32 %63
}