; Function Attrs: nounwind uwtable
define internal fastcc range(i32 0, 2) i32 @chkflevel(ptr noundef nonnull %0) unnamed_addr #0 {
  %2 = tail call ptr @cli_strtok(ptr noundef nonnull %0, i32 noundef 2, ptr noundef nonnull @.str.130) #8
  %.not = icmp eq ptr %2, null
  br i1 %.not, label %28, label %3

3:                                                ; preds = %1
  %4 = tail call ptr @__ctype_b_loc() #10
  %5 = load ptr, ptr %4, align 8
  %6 = load i8, ptr %2, align 1
  %7 = sext i8 %6 to i64
  %8 = getelementptr inbounds i16, ptr %5, i64 %7
  %9 = load i16, ptr %8, align 2
  %10 = and i16 %9, 2048
  %.not16 = icmp eq i16 %10, 0
  br i1 %.not16, label %11, label %12

11:                                               ; preds = %3
  tail call void @free(ptr noundef nonnull %2) #8
  br label %28

12:                                               ; preds = %3
  %13 = tail call i32 @atoi(ptr noundef nonnull %2) #9
  %14 = icmp ugt i32 %13, 210
  tail call void @free(ptr noundef nonnull %2) #8
  br i1 %14, label %28, label %15

15:                                               ; preds = %12
  %16 = tail call ptr @cli_strtok(ptr noundef nonnull %0, i32 noundef 3, ptr noundef nonnull @.str.130) #8
  %.not17 = icmp eq ptr %16, null
  br i1 %.not17, label %28, label %17

17:                                               ; preds = %15
  %18 = load ptr, ptr %4, align 8
  %19 = load i8, ptr %16, align 1
  %20 = sext i8 %19 to i64
  %21 = getelementptr inbounds i16, ptr %18, i64 %20
  %22 = load i16, ptr %21, align 2
  %23 = and i16 %22, 2048
  %.not18 = icmp eq i16 %23, 0
  br i1 %.not18, label %24, label %25

24:                                               ; preds = %17
  tail call void @free(ptr noundef nonnull %16) #8
  br label %28

25:                                               ; preds = %17
  %26 = tail call i32 @atoi(ptr noundef nonnull %16) #9
  %27 = icmp ugt i32 %26, 209
  tail call void @free(ptr noundef nonnull %16) #8
  %. = zext i1 %27 to i32
  br label %28

28:                                               ; preds = %12, %25, %1, %15, %24, %11
  %.0 = phi i32 [ 0, %24 ], [ 0, %11 ], [ 1, %15 ], [ 1, %1 ], [ %., %25 ], [ 0, %12 ]
  ret i32 %.0
}